target datalayout = "e-m:e-p270:32:32-p271:32:32-p272:64:64-i64:64-i128:128-f80:128-n8:16:32:64-S128"
target triple = "x86_64-pc-linux-gnu"

%struct.Ivy_Obj_t_ = type { i32, i32, i32, i32, ptr, ptr, ptr, ptr, ptr, ptr, ptr, ptr }
%struct.Ivy_Man_t_ = type { ptr, ptr, ptr, ptr, ptr, %struct.Ivy_Obj_t_, [8 x i32], i32, i32, ptr, i32, i32, i32, i32, ptr, i32, ptr, ptr, ptr, i32, ptr, ptr, ptr, i64, i64 }

; Function Attrs: inlinehint nounwind uwtable
define internal i32 @Ivy_IsComplement(ptr noundef %0) #2 {
  %2 = alloca ptr, align 8
  store ptr %0, ptr %2, align 8, !tbaa !8
  %3 = load ptr, ptr %2, align 8, !tbaa !8
  %4 = ptrtoint ptr %3 to i64
  %5 = and i64 %4, 1
  %6 = trunc i64 %5 to i32
  ret i32 %6
}

; Function Attrs: inlinehint nounwind uwtable
define internal i32 @Ivy_ObjId(ptr noundef %0) #2 {
  %2 = alloca ptr, align 8
  store ptr %0, ptr %2, align 8, !tbaa !8
  %3 = load ptr, ptr %2, align 8, !tbaa !8
  %4 = getelementptr inbounds nuw %struct.Ivy_Obj_t_, ptr %3, i32 0, i32 0
  %5 = load i32, ptr %4, align 8, !tbaa !26
  ret i32 %5
}

; Function Attrs: inlinehint nounwind uwtable
define internal ptr @Ivy_Regular(ptr noundef %0) #2 {
  %2 = alloca ptr, align 8
  store ptr %0, ptr %2, align 8, !tbaa !8
  %3 = load ptr, ptr %2, align 8, !tbaa !8
  %4 = ptrtoint ptr %3 to i64
  %5 = and i64 %4, -2
  %6 = inttoptr i64 %5 to ptr
  ret ptr %6
}

; Function Attrs: inlinehint nounwind uwtable
define internal i32 @Ivy_ObjInit(ptr noundef %0) #2 {
  %2 = alloca ptr, align 8
  store ptr %0, ptr %2, align 8, !tbaa !8
  %3 = load ptr, ptr %2, align 8, !tbaa !8
  %4 = getelementptr inbounds nuw %struct.Ivy_Obj_t_, ptr %3, i32 0, i32 2
  %5 = load i32, ptr %4, align 8
  %6 = lshr i32 %5, 9
  %7 = and i32 %6, 3
  ret i32 %7
}

; Function Attrs: inlinehint nounwind uwtable
define internal i32 @Ivy_ObjFaninC1(ptr noundef %0) #2 {
  %2 = alloca ptr, align 8
  store ptr %0, ptr %2, align 8, !tbaa !8
  %3 = load ptr, ptr %2, align 8, !tbaa !8
  %4 = getelementptr inbounds nuw %struct.Ivy_Obj_t_, ptr %3, i32 0, i32 5
  %5 = load ptr, ptr %4, align 8, !tbaa !24
  %6 = call i32 @Ivy_IsComplement(ptr noundef %5)
  ret i32 %6
}

; Function Attrs: inlinehint nounwind uwtable
define internal i32 @Ivy_ObjFaninC0(ptr noundef %0) #2 {
  %2 = alloca ptr, align 8
  store ptr %0, ptr %2, align 8, !tbaa !8
  %3 = load ptr, ptr %2, align 8, !tbaa !8
  %4 = getelementptr inbounds nuw %struct.Ivy_Obj_t_, ptr %3, i32 0, i32 4
  %5 = load ptr, ptr %4, align 8, !tbaa !23
  %6 = call i32 @Ivy_IsComplement(ptr noundef %5)
  ret i32 %6
}

; Function Attrs: inlinehint nounwind uwtable
define internal i32 @Ivy_ObjFaninId1(ptr noundef %0) #2 {
  %2 = alloca ptr, align 8
  store ptr %0, ptr %2, align 8, !tbaa !8
  %3 = load ptr, ptr %2, align 8, !tbaa !8
  %4 = getelementptr inbounds nuw %struct.Ivy_Obj_t_, ptr %3, i32 0, i32 5
  %5 = load ptr, ptr %4, align 8, !tbaa !24
  %6 = icmp ne ptr %5, null
  br i1 %6, label %7, label %13

7:                                                ; preds = %1
  %8 = load ptr, ptr %2, align 8, !tbaa !8
  %9 = getelementptr inbounds nuw %struct.Ivy_Obj_t_, ptr %8, i32 0, i32 5
  %10 = load ptr, ptr %9, align 8, !tbaa !24
  %11 = call ptr @Ivy_Regular(ptr noundef %10)
  %12 = call i32 @Ivy_ObjId(ptr noundef %11)
  br label %14

13:                                               ; preds = %1
  br label %14

14:                                               ; preds = %13, %7
  %15 = phi i32 [ %12, %7 ], [ 0, %13 ]
  ret i32 %15
}

; Function Attrs: inlinehint nounwind uwtable
define internal i32 @Ivy_ObjFaninId0(ptr noundef %0) #2 {
  %2 = alloca ptr, align 8
  store ptr %0, ptr %2, align 8, !tbaa !8
  %3 = load ptr, ptr %2, align 8, !tbaa !8
  %4 = getelementptr inbounds nuw %struct.Ivy_Obj_t_, ptr %3, i32 0, i32 4
  %5 = load ptr, ptr %4, align 8, !tbaa !23
  %6 = icmp ne ptr %5, null
  br i1 %6, label %7, label %13

7:                                                ; preds = %1
  %8 = load ptr, ptr %2, align 8, !tbaa !8
  %9 = getelementptr inbounds nuw %struct.Ivy_Obj_t_, ptr %8, i32 0, i32 4
  %10 = load ptr, ptr %9, align 8, !tbaa !23
  %11 = call ptr @Ivy_Regular(ptr noundef %10)
  %12 = call i32 @Ivy_ObjId(ptr noundef %11)
  br label %14

13:                                               ; preds = %1
  br label %14

14:                                               ; preds = %13, %7
  %15 = phi i32 [ %12, %7 ], [ 0, %13 ]
  ret i32 %15
}

; Function Attrs: inlinehint nounwind uwtable
define internal i32 @Ivy_ObjIsExor(ptr noundef %0) #2 {
  %2 = alloca ptr, align 8
  store ptr %0, ptr %2, align 8, !tbaa !8
  %3 = load ptr, ptr %2, align 8, !tbaa !8
  %4 = getelementptr inbounds nuw %struct.Ivy_Obj_t_, ptr %3, i32 0, i32 2
  %5 = load i32, ptr %4, align 8
  %6 = and i32 %5, 15
  %7 = icmp eq i32 %6, 6
  %8 = zext i1 %7 to i32
  ret i32 %8
}

; Function Attrs: nounwind uwtable
define internal i32 @Ivy_Hash(ptr noundef %0, i32 noundef %1) #0 {
  %3 = alloca ptr, align 8
  %4 = alloca i32, align 4
  %5 = alloca i32, align 4
  store ptr %0, ptr %3, align 8, !tbaa !8
  store i32 %1, ptr %4, align 4, !tbaa !19
  call void @llvm.lifetime.start.p0(i64 4, ptr %5) #7
  %6 = load ptr, ptr %3, align 8, !tbaa !8
  %7 = call i32 @Ivy_ObjIsExor(ptr noundef %6)
  %8 = mul nsw i32 %7, 1699
  store i32 %8, ptr %5, align 4, !tbaa !19
  %9 = load ptr, ptr %3, align 8, !tbaa !8
  %10 = call i32 @Ivy_ObjFaninId0(ptr noundef %9)
  %11 = mul nsw i32 %10, 7937
  %12 = load i32, ptr %5, align 4, !tbaa !19
  %13 = xor i32 %12, %11
  store i32 %13, ptr %5, align 4, !tbaa !19
  %14 = load ptr, ptr %3, align 8, !tbaa !8
  %15 = call i32 @Ivy_ObjFaninId1(ptr noundef %14)
  %16 = mul nsw i32 %15, 2971
  %17 = load i32, ptr %5, align 4, !tbaa !19
  %18 = xor i32 %17, %16
  store i32 %18, ptr %5, align 4, !tbaa !19
  %19 = load ptr, ptr %3, align 8, !tbaa !8
  %20 = call i32 @Ivy_ObjFaninC0(ptr noundef %19)
  %21 = mul nsw i32 %20, 911
  %22 = load i32, ptr %5, align 4, !tbaa !19
  %23 = xor i32 %22, %21
  store i32 %23, ptr %5, align 4, !tbaa !19
  %24 = load ptr, ptr %3, align 8, !tbaa !8
  %25 = call i32 @Ivy_ObjFaninC1(ptr noundef %24)
  %26 = mul nsw i32 %25, 353
  %27 = load i32, ptr %5, align 4, !tbaa !19
  %28 = xor i32 %27, %26
  store i32 %28, ptr %5, align 4, !tbaa !19
  %29 = load ptr, ptr %3, align 8, !tbaa !8
  %30 = call i32 @Ivy_ObjInit(ptr noundef %29)
  %31 = mul i32 %30, 911
  %32 = load i32, ptr %5, align 4, !tbaa !19
  %33 = xor i32 %32, %31
  store i32 %33, ptr %5, align 4, !tbaa !19
  %34 = load i32, ptr %5, align 4, !tbaa !19
  %35 = load i32, ptr %4, align 4, !tbaa !19
  %36 = urem i32 %34, %35
  call void @llvm.lifetime.end.p0(i64 4, ptr %5) #7
  ret i32 %36
}

; Function Attrs: nounwind uwtable
define internal ptr @Ivy_TableFind(ptr noundef %0, ptr noundef %1) #0 {
  %3 = alloca ptr, align 8
  %4 = alloca ptr, align 8
  %5 = alloca i32, align 4
  store ptr %0, ptr %3, align 8, !tbaa !3
  store ptr %1, ptr %4, align 8, !tbaa !8
  call void @llvm.lifetime.start.p0(i64 4, ptr %5) #7
  %6 = load ptr, ptr %4, align 8, !tbaa !8
  %7 = load ptr, ptr %3, align 8, !tbaa !3
  %8 = getelementptr inbounds nuw %struct.Ivy_Man_t_, ptr %7, i32 0, i32 10
  %9 = load i32, ptr %8, align 8, !tbaa !13
  %10 = call i32 @Ivy_Hash(ptr noundef %6, i32 noundef %9)
  store i32 %10, ptr %5, align 4, !tbaa !19
  br label %11

11:                                               ; preds = %34, %2
  %12 = load ptr, ptr %3, align 8, !tbaa !3
  %13 = getelementptr inbounds nuw %struct.Ivy_Man_t_, ptr %12, i32 0, i32 9
  %14 = load ptr, ptr %13, align 8, !tbaa !20
  %15 = load i32, ptr %5, align 4, !tbaa !19
  %16 = sext i32 %15 to i64
  %17 = getelementptr inbounds i32, ptr %14, i64 %16
  %18 = load i32, ptr %17, align 4, !tbaa !19
  %19 = icmp ne i32 %18, 0
  br i1 %19, label %20, label %41

20:                                               ; preds = %11
  %21 = load ptr, ptr %3, align 8, !tbaa !3
  %22 = getelementptr inbounds nuw %struct.Ivy_Man_t_, ptr %21, i32 0, i32 9
  %23 = load ptr, ptr %22, align 8, !tbaa !20
  %24 = load i32, ptr %5, align 4, !tbaa !19
  %25 = sext i32 %24 to i64
  %26 = getelementptr inbounds i32, ptr %23, i64 %25
  %27 = load i32, ptr %26, align 4, !tbaa !19
  %28 = load ptr, ptr %4, align 8, !tbaa !8
  %29 = getelementptr inbounds nuw %struct.Ivy_Obj_t_, ptr %28, i32 0, i32 0
  %30 = load i32, ptr %29, align 8, !tbaa !26
  %31 = icmp eq i32 %27, %30
  br i1 %31, label %32, label %33

32:                                               ; preds = %20
  br label %41

33:                                               ; preds = %20
  br label %34

34:                                               ; preds = %33
  %35 = load i32, ptr %5, align 4, !tbaa !19
  %36 = add nsw i32 %35, 1
  %37 = load ptr, ptr %3, align 8, !tbaa !3
  %38 = getelementptr inbounds nuw %struct.Ivy_Man_t_, ptr %37, i32 0, i32 10
  %39 = load i32, ptr %38, align 8, !tbaa !13
  %40 = srem i32 %36, %39
  store i32 %40, ptr %5, align 4, !tbaa !19
  br label %11, !llvm.loop !30

41:                                               ; preds = %32, %11
  %42 = load ptr, ptr %3, align 8, !tbaa !3
  %43 = getelementptr inbounds nuw %struct.Ivy_Man_t_, ptr %42, i32 0, i32 9
  %44 = load ptr, ptr %43, align 8, !tbaa !20
  %45 = load i32, ptr %5, align 4, !tbaa !19
  %46 = sext i32 %45 to i64
  %47 = getelementptr inbounds i32, ptr %44, i64 %46
  call void @llvm.lifetime.end.p0(i64 4, ptr %5) #7
  ret ptr %47
}

; Function Attrs: inlinehint nounwind uwtable
define internal i32 @Ivy_ObjIsHash(ptr noundef %0) #2 {
  %2 = alloca ptr, align 8
  store ptr %0, ptr %2, align 8, !tbaa !8
  %3 = load ptr, ptr %2, align 8, !tbaa !8
  %4 = getelementptr inbounds nuw %struct.Ivy_Obj_t_, ptr %3, i32 0, i32 2
  %5 = load i32, ptr %4, align 8
  %6 = and i32 %5, 15
  %7 = icmp eq i32 %6, 5
  br i1 %7, label %20, label %8

8:                                                ; preds = %1
  %9 = load ptr, ptr %2, align 8, !tbaa !8
  %10 = getelementptr inbounds nuw %struct.Ivy_Obj_t_, ptr %9, i32 0, i32 2
  %11 = load i32, ptr %10, align 8
  %12 = and i32 %11, 15
  %13 = icmp eq i32 %12, 6
  br i1 %13, label %20, label %14

14:                                               ; preds = %8
  %15 = load ptr, ptr %2, align 8, !tbaa !8
  %16 = getelementptr inbounds nuw %struct.Ivy_Obj_t_, ptr %15, i32 0, i32 2
  %17 = load i32, ptr %16, align 8
  %18 = and i32 %17, 15
  %19 = icmp eq i32 %18, 4
  br label %20

20:                                               ; preds = %14, %8, %1
  %21 = phi i1 [ true, %8 ], [ true, %1 ], [ %19, %14 ]
  %22 = zext i1 %21 to i32
  ret i32 %22
}

; Function Attrs: nounwind uwtable
define void @Ivy_TableUpdate(ptr noundef %0, ptr noundef %1, i32 noundef %2) #0 {
  %4 = alloca ptr, align 8
  %5 = alloca ptr, align 8
  %6 = alloca i32, align 4
  %7 = alloca ptr, align 8
  %8 = alloca i32, align 4
  store ptr %0, ptr %4, align 8, !tbaa !3
  store ptr %1, ptr %5, align 8, !tbaa !8
  store i32 %2, ptr %6, align 4, !tbaa !19
  call void @llvm.lifetime.start.p0(i64 8, ptr %7) #7
  %9 = load ptr, ptr %5, align 8, !tbaa !8
  %10 = call i32 @Ivy_ObjIsHash(ptr noundef %9)
  %11 = icmp ne i32 %10, 0
  br i1 %11, label %13, label %12

12:                                               ; preds = %3
  store i32 1, ptr %8, align 4
  br label %19

13:                                               ; preds = %3
  %14 = load ptr, ptr %4, align 8, !tbaa !3
  %15 = load ptr, ptr %5, align 8, !tbaa !8
  %16 = call ptr @Ivy_TableFind(ptr noundef %14, ptr noundef %15)
  store ptr %16, ptr %7, align 8, !tbaa !27
  %17 = load i32, ptr %6, align 4, !tbaa !19
  %18 = load ptr, ptr %7, align 8, !tbaa !27
  store i32 %17, ptr %18, align 4, !tbaa !19
  store i32 0, ptr %8, align 4
  br label %19

19:                                               ; preds = %13, %12
  call void @llvm.lifetime.end.p0(i64 8, ptr %7) #7
  %20 = load i32, ptr %8, align 4
  switch i32 %20, label %22 [
    i32 0, label %21
    i32 1, label %21
  ]

21:                                               ; preds = %19, %19
  ret void

22:                                               ; preds = %19
  unreachable
}