; Function Attrs: nofree norecurse nosync nounwind memory(readwrite, inaccessiblemem: none) uwtable
define void @Ivy_TableUpdate(ptr noundef readonly captures(none) %0, ptr noundef readonly captures(none) %1, i32 noundef %2) local_unnamed_addr #3 {
  %4 = getelementptr i8, ptr %1, i64 8
  %.val = load i32, ptr %4, align 8
  %5 = and i32 %.val, 15
  %6 = add nsw i32 %5, -7
  %narrow.i = icmp ult i32 %6, -3
  br i1 %narrow.i, label %53, label %7

7:                                                ; preds = %3
  %8 = getelementptr inbounds nuw i8, ptr %0, i64 168
  %9 = load i32, ptr %8, align 8, !tbaa !12
  %10 = getelementptr i8, ptr %1, i64 16
  %.val12.i.i = load ptr, ptr %10, align 8, !tbaa !3
  %.not.i.i.i = icmp eq ptr %.val12.i.i, null
  br i1 %.not.i.i.i, label %Ivy_ObjFaninId0.exit.i.i, label %11

11:                                               ; preds = %7
  %12 = ptrtoint ptr %.val12.i.i to i64
  %13 = and i64 %12, -2
  %14 = inttoptr i64 %13 to ptr
  %.val.i.i.i = load i32, ptr %14, align 8, !tbaa !19
  %15 = mul nsw i32 %.val.i.i.i, 7937
  br label %Ivy_ObjFaninId0.exit.i.i

Ivy_ObjFaninId0.exit.i.i:                         ; preds = %11, %7
  %16 = phi i32 [ %15, %11 ], [ 0, %7 ]
  %17 = getelementptr i8, ptr %1, i64 24
  %.val13.i.i = load ptr, ptr %17, align 8, !tbaa !11
  %.not.i17.i.i = icmp eq ptr %.val13.i.i, null
  %.pre.i.i = ptrtoint ptr %.val13.i.i to i64
  br i1 %.not.i17.i.i, label %Ivy_Hash.exit.i, label %18

18:                                               ; preds = %Ivy_ObjFaninId0.exit.i.i
  %19 = and i64 %.pre.i.i, -2
  %20 = inttoptr i64 %19 to ptr
  %.val.i18.i.i = load i32, ptr %20, align 8, !tbaa !19
  %21 = mul nsw i32 %.val.i18.i.i, 2971
  br label %Ivy_Hash.exit.i

Ivy_Hash.exit.i:                                  ; preds = %18, %Ivy_ObjFaninId0.exit.i.i
  %22 = phi i32 [ %21, %18 ], [ 0, %Ivy_ObjFaninId0.exit.i.i ]
  %23 = icmp eq i32 %5, 6
  %24 = select i1 %23, i32 1699, i32 0
  %25 = ptrtoint ptr %.val12.i.i to i64
  %26 = trunc i64 %25 to i1
  %27 = select i1 %26, i32 911, i32 0
  %28 = trunc i64 %.pre.i.i to i1
  %29 = select i1 %28, i32 353, i32 0
  %30 = lshr i32 %.val, 9
  %31 = and i32 %30, 3
  %32 = mul nuw nsw i32 %31, 911
  %33 = xor i32 %32, %24
  %34 = xor i32 %33, %27
  %35 = xor i32 %34, %16
  %36 = xor i32 %35, %29
  %37 = xor i32 %36, %22
  %38 = urem i32 %37, %9
  %39 = getelementptr inbounds nuw i8, ptr %0, i64 160
  %40 = load ptr, ptr %39, align 8, !tbaa !20
  %41 = sext i32 %38 to i64
  %42 = getelementptr inbounds i32, ptr %40, i64 %41
  %43 = load i32, ptr %42, align 4, !tbaa !21
  %.not13.i = icmp eq i32 %43, 0
  br i1 %.not13.i, label %Ivy_TableFind.exit, label %.lr.ph.i

.lr.ph.i:                                         ; preds = %Ivy_Hash.exit.i
  %44 = load i32, ptr %1, align 8, !tbaa !19
  %45 = icmp eq i32 %43, %44
  br i1 %45, label %Ivy_TableFind.exit, label %.lr.ph

.lr.ph:                                           ; preds = %.lr.ph.i, %.lr.ph
  %.014.i4 = phi i32 [ %47, %.lr.ph ], [ %38, %.lr.ph.i ]
  %46 = add nsw i32 %.014.i4, 1
  %47 = srem i32 %46, %9
  %48 = sext i32 %47 to i64
  %49 = getelementptr inbounds i32, ptr %40, i64 %48
  %50 = load i32, ptr %49, align 4, !tbaa !21
  %.not.i = icmp eq i32 %50, 0
  %51 = icmp eq i32 %50, %44
  %or.cond = or i1 %.not.i, %51
  br i1 %or.cond, label %Ivy_TableFind.exit, label %.lr.ph, !llvm.loop !30

Ivy_TableFind.exit:                               ; preds = %.lr.ph, %.lr.ph.i, %Ivy_Hash.exit.i
  %.lcssa12.i = phi i64 [ %41, %Ivy_Hash.exit.i ], [ %41, %.lr.ph.i ], [ %48, %.lr.ph ]
  %52 = getelementptr inbounds i32, ptr %40, i64 %.lcssa12.i
  store i32 %2, ptr %52, align 4, !tbaa !21
  br label %53

53:                                               ; preds = %3, %Ivy_TableFind.exit
  ret void
}